; Function Attrs: mustprogress nofree norecurse nosync nounwind willreturn memory(argmem: read) uwtable
define noundef zeroext i1 @_ZNK32pxrInternal_v0_24__pxrReserved__10GfMatrix3feqERKNS_10GfMatrix3dE(ptr nocapture noundef nonnull readonly align 4 dereferenceable(36) %0, ptr nocapture noundef nonnull readonly align 8 dereferenceable(72) %1) local_unnamed_addr #6 align 2 {
  %3 = load float, ptr %0, align 4
  %4 = fpext float %3 to double
  %5 = load double, ptr %1, align 8
  %6 = fcmp oeq double %5, %4
  br i1 %6, label %7, label %63

7:                                                ; preds = %2
  %8 = getelementptr inbounds i8, ptr %0, i64 4
  %9 = load float, ptr %8, align 4
  %10 = fpext float %9 to double
  %11 = getelementptr inbounds i8, ptr %1, i64 8
  %12 = load double, ptr %11, align 8
  %13 = fcmp oeq double %12, %10
  br i1 %13, label %14, label %63

14:                                               ; preds = %7
  %15 = getelementptr inbounds i8, ptr %0, i64 8
  %16 = load float, ptr %15, align 4
  %17 = fpext float %16 to double
  %18 = getelementptr inbounds i8, ptr %1, i64 16
  %19 = load double, ptr %18, align 8
  %20 = fcmp oeq double %19, %17
  br i1 %20, label %21, label %63

21:                                               ; preds = %14
  %22 = getelementptr inbounds i8, ptr %0, i64 12
  %23 = load float, ptr %22, align 4
  %24 = fpext float %23 to double
  %25 = getelementptr inbounds i8, ptr %1, i64 24
  %26 = load double, ptr %25, align 8
  %27 = fcmp oeq double %26, %24
  br i1 %27, label %28, label %63

28:                                               ; preds = %21
  %29 = getelementptr inbounds i8, ptr %0, i64 16
  %30 = load float, ptr %29, align 4
  %31 = fpext float %30 to double
  %32 = getelementptr inbounds i8, ptr %1, i64 32
  %33 = load double, ptr %32, align 8
  %34 = fcmp oeq double %33, %31
  br i1 %34, label %35, label %63

35:                                               ; preds = %28
  %36 = getelementptr inbounds i8, ptr %0, i64 20
  %37 = load float, ptr %36, align 4
  %38 = fpext float %37 to double
  %39 = getelementptr inbounds i8, ptr %1, i64 40
  %40 = load double, ptr %39, align 8
  %41 = fcmp oeq double %40, %38
  br i1 %41, label %42, label %63

42:                                               ; preds = %35
  %43 = getelementptr inbounds i8, ptr %0, i64 24
  %44 = load float, ptr %43, align 4
  %45 = fpext float %44 to double
  %46 = getelementptr inbounds i8, ptr %1, i64 48
  %47 = load double, ptr %46, align 8
  %48 = fcmp oeq double %47, %45
  br i1 %48, label %49, label %63

49:                                               ; preds = %42
  %50 = getelementptr inbounds i8, ptr %0, i64 28
  %51 = load float, ptr %50, align 4
  %52 = fpext float %51 to double
  %53 = getelementptr inbounds i8, ptr %1, i64 56
  %54 = load double, ptr %53, align 8
  %55 = fcmp oeq double %54, %52
  br i1 %55, label %56, label %63

56:                                               ; preds = %49
  %57 = getelementptr inbounds i8, ptr %0, i64 32
  %58 = load float, ptr %57, align 4
  %59 = fpext float %58 to double
  %60 = getelementptr inbounds i8, ptr %1, i64 64
  %61 = load double, ptr %60, align 8
  %62 = fcmp oeq double %61, %59
  br label %63

63:                                               ; preds = %56, %49, %42, %35, %28, %21, %14, %7, %2
  %64 = phi i1 [ false, %49 ], [ false, %42 ], [ false, %35 ], [ false, %28 ], [ false, %21 ], [ false, %14 ], [ false, %7 ], [ false, %2 ], [ %62, %56 ]
  ret i1 %64
}